target datalayout = "e-m:e-p270:32:32-p271:32:32-p272:64:64-i64:64-i128:128-f80:128-n8:16:32:64-S128"
target triple = "x86_64-pc-linux-gnu"

%struct.IDAMemRec = type { double, ptr, ptr, i32, double, double, ptr, i32, ptr, ptr, i32, ptr, ptr, i32, i32, double, double, ptr, i32, i32, i32, ptr, ptr, i32, ptr, ptr, ptr, i32, double, i32, i32, double, ptr, ptr, i32, ptr, ptr, i32, i32, i32, double, ptr, ptr, [6 x ptr], [6 x double], [6 x double], [6 x double], [6 x double], [6 x double], ptr, ptr, ptr, ptr, ptr, ptr, ptr, ptr, ptr, ptr, ptr, ptr, ptr, ptr, ptr, [6 x ptr], ptr, ptr, ptr, ptr, [6 x ptr], ptr, ptr, ptr, ptr, ptr, ptr, ptr, ptr, ptr, ptr, ptr, ptr, ptr, ptr, [6 x ptr], ptr, ptr, ptr, ptr, ptr, double, ptr, ptr, i32, i32, i32, i32, i32, i32, i32, double, double, double, i32, double, i32, i32, i32, i32, double, double, double, double, double, double, double, double, double, double, double, double, double, double, i32, i32, i32, i32, i32, i64, double, i32, i64, i64, i64, i64, i64, i64, i64, i64, i64, i64, i64, i64, i64, i64, i64, i64, i64, i64, i64, i64, i64, i64, i64, i64, ptr, ptr, ptr, i32, i32, i32, i32, i32, i32, i32, i32, i32, i32, i32, i32, i32, ptr, ptr, ptr, ptr, ptr, ptr, i32, i32, i32, i32, i32, i32, double, double, double, ptr, i32, ptr, ptr, double, double, double, ptr, ptr, ptr, double, double, i32, i32, i64, ptr, i32, i32, ptr, i32 }
%struct.IDAadjMemRec = type { double, double, i32, i32, double, ptr, i32, ptr, i32, ptr, ptr, i32, i64, ptr, i64, i32, ptr, ptr, ptr, ptr, i32, i32, i32, i32, i32, [6 x ptr], [6 x ptr], [6 x double], ptr, ptr, ptr, ptr, i64 }
%struct.IDABMemRec = type { i32, double, ptr, i32, i32, ptr, ptr, ptr, ptr, ptr, ptr, ptr, ptr, ptr, double, ptr, ptr, ptr }

; Function Attrs: nounwind uwtable
define internal void @IDAAbckpbDelete(ptr noundef %0) #0 {
  %2 = alloca ptr, align 8
  %3 = alloca ptr, align 8
  %4 = alloca ptr, align 8
  %5 = alloca i32, align 4
  store ptr %0, ptr %2, align 8, !tbaa !130
  call void @llvm.lifetime.start.p0(i64 8, ptr %3) #6
  %6 = load ptr, ptr %2, align 8, !tbaa !130
  %7 = load ptr, ptr %6, align 8, !tbaa !132
  store ptr %7, ptr %3, align 8, !tbaa !132
  call void @llvm.lifetime.start.p0(i64 8, ptr %4) #6
  %8 = load ptr, ptr %3, align 8, !tbaa !132
  %9 = icmp eq ptr %8, null
  br i1 %9, label %10, label %11

10:                                               ; preds = %1
  store i32 1, ptr %5, align 4
  br label %46

11:                                               ; preds = %1
  %12 = load ptr, ptr %3, align 8, !tbaa !132
  %13 = getelementptr inbounds nuw %struct.IDABMemRec, ptr %12, i32 0, i32 17
  %14 = load ptr, ptr %13, align 8, !tbaa !133
  %15 = load ptr, ptr %2, align 8, !tbaa !130
  store ptr %14, ptr %15, align 8, !tbaa !132
  %16 = load ptr, ptr %3, align 8, !tbaa !132
  %17 = getelementptr inbounds nuw %struct.IDABMemRec, ptr %16, i32 0, i32 2
  %18 = load ptr, ptr %17, align 8, !tbaa !135
  store ptr %18, ptr %4, align 8, !tbaa !3
  call void @IDAFree(ptr noundef %4)
  %19 = load ptr, ptr %3, align 8, !tbaa !132
  %20 = getelementptr inbounds nuw %struct.IDABMemRec, ptr %19, i32 0, i32 11
  %21 = load ptr, ptr %20, align 8, !tbaa !136
  %22 = icmp ne ptr %21, null
  br i1 %22, label %23, label %28

23:                                               ; preds = %11
  %24 = load ptr, ptr %3, align 8, !tbaa !132
  %25 = getelementptr inbounds nuw %struct.IDABMemRec, ptr %24, i32 0, i32 11
  %26 = load ptr, ptr %25, align 8, !tbaa !136
  %27 = load ptr, ptr %3, align 8, !tbaa !132
  call void %26(ptr noundef %27)
  br label %28

28:                                               ; preds = %23, %11
  %29 = load ptr, ptr %3, align 8, !tbaa !132
  %30 = getelementptr inbounds nuw %struct.IDABMemRec, ptr %29, i32 0, i32 13
  %31 = load ptr, ptr %30, align 8, !tbaa !137
  %32 = icmp ne ptr %31, null
  br i1 %32, label %33, label %38

33:                                               ; preds = %28
  %34 = load ptr, ptr %3, align 8, !tbaa !132
  %35 = getelementptr inbounds nuw %struct.IDABMemRec, ptr %34, i32 0, i32 13
  %36 = load ptr, ptr %35, align 8, !tbaa !137
  %37 = load ptr, ptr %3, align 8, !tbaa !132
  call void %36(ptr noundef %37)
  br label %38

38:                                               ; preds = %33, %28
  %39 = load ptr, ptr %3, align 8, !tbaa !132
  %40 = getelementptr inbounds nuw %struct.IDABMemRec, ptr %39, i32 0, i32 15
  %41 = load ptr, ptr %40, align 8, !tbaa !138
  call void @N_VDestroy(ptr noundef %41)
  %42 = load ptr, ptr %3, align 8, !tbaa !132
  %43 = getelementptr inbounds nuw %struct.IDABMemRec, ptr %42, i32 0, i32 16
  %44 = load ptr, ptr %43, align 8, !tbaa !139
  call void @N_VDestroy(ptr noundef %44)
  %45 = load ptr, ptr %3, align 8, !tbaa !132
  call void @free(ptr noundef %45) #6
  store ptr null, ptr %3, align 8, !tbaa !132
  store i32 0, ptr %5, align 4
  br label %46

46:                                               ; preds = %38, %10
  call void @llvm.lifetime.end.p0(i64 8, ptr %4) #6
  call void @llvm.lifetime.end.p0(i64 8, ptr %3) #6
  %47 = load i32, ptr %5, align 4
  switch i32 %47, label %49 [
    i32 0, label %48
    i32 1, label %48
  ]

48:                                               ; preds = %46, %46
  ret void

49:                                               ; preds = %46
  unreachable
}

; Function Attrs: nounwind uwtable
define internal void @IDAAdataFree(ptr noundef %0) #0 {
  %2 = alloca ptr, align 8
  %3 = alloca ptr, align 8
  %4 = alloca i64, align 8
  %5 = alloca i32, align 4
  store ptr %0, ptr %2, align 8, !tbaa !11
  call void @llvm.lifetime.start.p0(i64 8, ptr %3) #6
  call void @llvm.lifetime.start.p0(i64 8, ptr %4) #6
  %6 = load ptr, ptr %2, align 8, !tbaa !11
  %7 = getelementptr inbounds nuw %struct.IDAMemRec, ptr %6, i32 0, i32 204
  %8 = load ptr, ptr %7, align 8, !tbaa !15
  store ptr %8, ptr %3, align 8, !tbaa !13
  %9 = load ptr, ptr %3, align 8, !tbaa !13
  %10 = icmp eq ptr %9, null
  br i1 %10, label %11, label %12

11:                                               ; preds = %1
  store i32 1, ptr %5, align 4
  br label %44

12:                                               ; preds = %1
  %13 = load ptr, ptr %3, align 8, !tbaa !13
  %14 = getelementptr inbounds nuw %struct.IDAadjMemRec, ptr %13, i32 0, i32 19
  %15 = load ptr, ptr %14, align 8, !tbaa !37
  %16 = load ptr, ptr %2, align 8, !tbaa !11
  call void %15(ptr noundef %16)
  store i64 0, ptr %4, align 8, !tbaa !7
  br label %17

17:                                               ; preds = %35, %12
  %18 = load i64, ptr %4, align 8, !tbaa !7
  %19 = load ptr, ptr %3, align 8, !tbaa !13
  %20 = getelementptr inbounds nuw %struct.IDAadjMemRec, ptr %19, i32 0, i32 12
  %21 = load i64, ptr %20, align 8, !tbaa !35
  %22 = icmp sle i64 %18, %21
  br i1 %22, label %23, label %38

23:                                               ; preds = %17
  %24 = load ptr, ptr %3, align 8, !tbaa !13
  %25 = getelementptr inbounds nuw %struct.IDAadjMemRec, ptr %24, i32 0, i32 13
  %26 = load ptr, ptr %25, align 8, !tbaa !52
  %27 = load i64, ptr %4, align 8, !tbaa !7
  %28 = getelementptr inbounds ptr, ptr %26, i64 %27
  %29 = load ptr, ptr %28, align 8, !tbaa !54
  call void @free(ptr noundef %29) #6
  %30 = load ptr, ptr %3, align 8, !tbaa !13
  %31 = getelementptr inbounds nuw %struct.IDAadjMemRec, ptr %30, i32 0, i32 13
  %32 = load ptr, ptr %31, align 8, !tbaa !52
  %33 = load i64, ptr %4, align 8, !tbaa !7
  %34 = getelementptr inbounds ptr, ptr %32, i64 %33
  store ptr null, ptr %34, align 8, !tbaa !54
  br label %35

35:                                               ; preds = %23
  %36 = load i64, ptr %4, align 8, !tbaa !7
  %37 = add nsw i64 %36, 1
  store i64 %37, ptr %4, align 8, !tbaa !7
  br label %17, !llvm.loop !129

38:                                               ; preds = %17
  %39 = load ptr, ptr %3, align 8, !tbaa !13
  %40 = getelementptr inbounds nuw %struct.IDAadjMemRec, ptr %39, i32 0, i32 13
  %41 = load ptr, ptr %40, align 8, !tbaa !52
  call void @free(ptr noundef %41) #6
  %42 = load ptr, ptr %3, align 8, !tbaa !13
  %43 = getelementptr inbounds nuw %struct.IDAadjMemRec, ptr %42, i32 0, i32 13
  store ptr null, ptr %43, align 8, !tbaa !52
  store i32 0, ptr %5, align 4
  br label %44

44:                                               ; preds = %38, %11
  call void @llvm.lifetime.end.p0(i64 8, ptr %4) #6
  call void @llvm.lifetime.end.p0(i64 8, ptr %3) #6
  %45 = load i32, ptr %5, align 4
  switch i32 %45, label %47 [
    i32 0, label %46
    i32 1, label %46
  ]

46:                                               ; preds = %44, %44
  ret void

47:                                               ; preds = %44
  unreachable
}

; Function Attrs: nounwind uwtable
define void @IDAAdjFree(ptr noundef %0) #0 {
  %2 = alloca ptr, align 8
  %3 = alloca ptr, align 8
  %4 = alloca ptr, align 8
  %5 = alloca i32, align 4
  store ptr %0, ptr %2, align 8, !tbaa !3
  call void @llvm.lifetime.start.p0(i64 8, ptr %3) #6
  call void @llvm.lifetime.start.p0(i64 8, ptr %4) #6
  %6 = load ptr, ptr %2, align 8, !tbaa !3
  %7 = icmp eq ptr %6, null
  br i1 %7, label %8, label %9

8:                                                ; preds = %1
  store i32 1, ptr %5, align 4
  br label %42

9:                                                ; preds = %1
  %10 = load ptr, ptr %2, align 8, !tbaa !3
  store ptr %10, ptr %3, align 8, !tbaa !11
  %11 = load ptr, ptr %3, align 8, !tbaa !11
  %12 = getelementptr inbounds nuw %struct.IDAMemRec, ptr %11, i32 0, i32 205
  %13 = load i32, ptr %12, align 8, !tbaa !51
  %14 = icmp ne i32 %13, 0
  br i1 %14, label %15, label %41

15:                                               ; preds = %9
  %16 = load ptr, ptr %3, align 8, !tbaa !11
  %17 = getelementptr inbounds nuw %struct.IDAMemRec, ptr %16, i32 0, i32 204
  %18 = load ptr, ptr %17, align 8, !tbaa !15
  store ptr %18, ptr %4, align 8, !tbaa !13
  br label %19

19:                                               ; preds = %24, %15
  %20 = load ptr, ptr %4, align 8, !tbaa !13
  %21 = getelementptr inbounds nuw %struct.IDAadjMemRec, ptr %20, i32 0, i32 9
  %22 = load ptr, ptr %21, align 8, !tbaa !23
  %23 = icmp ne ptr %22, null
  br i1 %23, label %24, label %27

24:                                               ; preds = %19
  %25 = load ptr, ptr %4, align 8, !tbaa !13
  %26 = getelementptr inbounds nuw %struct.IDAadjMemRec, ptr %25, i32 0, i32 9
  call void @IDAAckpntDelete(ptr noundef %26)
  br label %19, !llvm.loop !127

27:                                               ; preds = %19
  %28 = load ptr, ptr %3, align 8, !tbaa !11
  call void @IDAAdataFree(ptr noundef %28)
  br label %29

29:                                               ; preds = %34, %27
  %30 = load ptr, ptr %4, align 8, !tbaa !13
  %31 = getelementptr inbounds nuw %struct.IDAadjMemRec, ptr %30, i32 0, i32 5
  %32 = load ptr, ptr %31, align 8, !tbaa !44
  %33 = icmp ne ptr %32, null
  br i1 %33, label %34, label %37

34:                                               ; preds = %29
  %35 = load ptr, ptr %4, align 8, !tbaa !13
  %36 = getelementptr inbounds nuw %struct.IDAadjMemRec, ptr %35, i32 0, i32 5
  call void @IDAAbckpbDelete(ptr noundef %36)
  br label %29, !llvm.loop !128

37:                                               ; preds = %29
  %38 = load ptr, ptr %4, align 8, !tbaa !13
  call void @free(ptr noundef %38) #6
  %39 = load ptr, ptr %3, align 8, !tbaa !11
  %40 = getelementptr inbounds nuw %struct.IDAMemRec, ptr %39, i32 0, i32 204
  store ptr null, ptr %40, align 8, !tbaa !15
  br label %41

41:                                               ; preds = %37, %9
  store i32 0, ptr %5, align 4
  br label %42

42:                                               ; preds = %41, %8
  call void @llvm.lifetime.end.p0(i64 8, ptr %4) #6
  call void @llvm.lifetime.end.p0(i64 8, ptr %3) #6
  %43 = load i32, ptr %5, align 4
  switch i32 %43, label %45 [
    i32 0, label %44
    i32 1, label %44
  ]

44:                                               ; preds = %42, %42
  ret void

45:                                               ; preds = %42
  unreachable
}