; Function Attrs: nounwind uwtable
define void @IDAAdjFree(ptr noundef %0) local_unnamed_addr #0 {
  %2 = alloca ptr, align 8
  %3 = icmp eq ptr %0, null
  br i1 %3, label %46, label %4

4:                                                ; preds = %1
  %5 = getelementptr inbounds nuw i8, ptr %0, i64 1824
  %6 = load i32, ptr %5, align 8, !tbaa !46
  %.not = icmp eq i32 %6, 0
  br i1 %.not, label %46, label %7

7:                                                ; preds = %4
  %8 = getelementptr inbounds nuw i8, ptr %0, i64 1816
  %9 = load ptr, ptr %8, align 8, !tbaa !3
  %10 = getelementptr inbounds nuw i8, ptr %9, i64 64
  %11 = load ptr, ptr %10, align 8, !tbaa !103
  %.not1113 = icmp eq ptr %11, null
  br i1 %.not1113, label %._crit_edge.thread, label %.lr.ph

.lr.ph:                                           ; preds = %7, %.lr.ph
  tail call fastcc void @IDAAckpntDelete(ptr noundef nonnull %10)
  %12 = load ptr, ptr %10, align 8, !tbaa !103
  %.not11 = icmp eq ptr %12, null
  br i1 %.not11, label %._crit_edge, label %.lr.ph, !llvm.loop !117

._crit_edge:                                      ; preds = %.lr.ph
  %.pre = load ptr, ptr %8, align 8, !tbaa !3
  %13 = icmp eq ptr %.pre, null
  br i1 %13, label %IDAAdataFree.exit, label %._crit_edge.thread

._crit_edge.thread:                               ; preds = %7, %._crit_edge
  %14 = phi ptr [ %.pre, %._crit_edge ], [ %9, %7 ]
  %15 = getelementptr inbounds nuw i8, ptr %14, i64 144
  %16 = load ptr, ptr %15, align 8, !tbaa !32
  tail call void %16(ptr noundef nonnull %0) #9
  %17 = getelementptr inbounds nuw i8, ptr %14, i64 88
  %18 = load i64, ptr %17, align 8, !tbaa !22
  %.not13.i = icmp slt i64 %18, 0
  %.phi.trans.insert.i = getelementptr inbounds nuw i8, ptr %14, i64 96
  %.pre15.i = load ptr, ptr %.phi.trans.insert.i, align 8, !tbaa !23
  br i1 %.not13.i, label %._crit_edge.i, label %.lr.ph.i

.lr.ph.i:                                         ; preds = %._crit_edge.thread, %.lr.ph.i
  %19 = phi ptr [ %22, %.lr.ph.i ], [ %.pre15.i, %._crit_edge.thread ]
  %.014.i = phi i64 [ %24, %.lr.ph.i ], [ 0, %._crit_edge.thread ]
  %20 = getelementptr inbounds nuw ptr, ptr %19, i64 %.014.i
  %21 = load ptr, ptr %20, align 8, !tbaa !24
  tail call void @free(ptr noundef %21) #9
  %22 = load ptr, ptr %.phi.trans.insert.i, align 8, !tbaa !23
  %23 = getelementptr inbounds nuw ptr, ptr %22, i64 %.014.i
  store ptr null, ptr %23, align 8, !tbaa !24
  %24 = add nuw nsw i64 %.014.i, 1
  %25 = load i64, ptr %17, align 8, !tbaa !22
  %.not.not.i = icmp slt i64 %.014.i, %25
  br i1 %.not.not.i, label %.lr.ph.i, label %._crit_edge.i, !llvm.loop !118

._crit_edge.i:                                    ; preds = %.lr.ph.i, %._crit_edge.thread
  %26 = phi ptr [ %.pre15.i, %._crit_edge.thread ], [ %22, %.lr.ph.i ]
  tail call void @free(ptr noundef %26) #9
  store ptr null, ptr %.phi.trans.insert.i, align 8, !tbaa !23
  br label %IDAAdataFree.exit

IDAAdataFree.exit:                                ; preds = %._crit_edge, %._crit_edge.i
  %27 = getelementptr inbounds nuw i8, ptr %9, i64 32
  %28 = load ptr, ptr %27, align 8, !tbaa !39
  %.not1214 = icmp eq ptr %28, null
  br i1 %.not1214, label %._crit_edge16, label %.lr.ph15

.lr.ph15:                                         ; preds = %IDAAdataFree.exit, %IDAAbckpbDelete.exit
  %29 = phi ptr [ %45, %IDAAbckpbDelete.exit ], [ %28, %IDAAdataFree.exit ]
  call void @llvm.lifetime.start.p0(i64 8, ptr nonnull %2) #9
  %30 = getelementptr inbounds nuw i8, ptr %29, i64 128
  %31 = load ptr, ptr %30, align 8, !tbaa !119
  store ptr %31, ptr %27, align 8, !tbaa !122
  %32 = getelementptr inbounds nuw i8, ptr %29, i64 16
  %33 = load ptr, ptr %32, align 8, !tbaa !123
  store ptr %33, ptr %2, align 8, !tbaa !124
  call void @IDAFree(ptr noundef nonnull %2) #9
  %34 = getelementptr inbounds nuw i8, ptr %29, i64 80
  %35 = load ptr, ptr %34, align 8, !tbaa !125
  %.not.i = icmp eq ptr %35, null
  br i1 %.not.i, label %37, label %36

36:                                               ; preds = %.lr.ph15
  call void %35(ptr noundef nonnull %29) #9
  br label %37

37:                                               ; preds = %36, %.lr.ph15
  %38 = getelementptr inbounds nuw i8, ptr %29, i64 96
  %39 = load ptr, ptr %38, align 8, !tbaa !126
  %.not16.i = icmp eq ptr %39, null
  br i1 %.not16.i, label %IDAAbckpbDelete.exit, label %40

40:                                               ; preds = %37
  call void %39(ptr noundef nonnull %29) #9
  br label %IDAAbckpbDelete.exit

IDAAbckpbDelete.exit:                             ; preds = %37, %40
  %41 = getelementptr inbounds nuw i8, ptr %29, i64 112
  %42 = load ptr, ptr %41, align 8, !tbaa !127
  call void @N_VDestroy(ptr noundef %42) #9
  %43 = getelementptr inbounds nuw i8, ptr %29, i64 120
  %44 = load ptr, ptr %43, align 8, !tbaa !128
  call void @N_VDestroy(ptr noundef %44) #9
  call void @free(ptr noundef nonnull %29) #9
  call void @llvm.lifetime.end.p0(i64 8, ptr nonnull %2) #9
  %45 = load ptr, ptr %27, align 8, !tbaa !39
  %.not12 = icmp eq ptr %45, null
  br i1 %.not12, label %._crit_edge16, label %.lr.ph15, !llvm.loop !129

._crit_edge16:                                    ; preds = %IDAAbckpbDelete.exit, %IDAAdataFree.exit
  call void @free(ptr noundef nonnull %9) #9
  store ptr null, ptr %8, align 8, !tbaa !3
  br label %46

46:                                               ; preds = %4, %._crit_edge16, %1
  ret void
}